; Function Attrs: mustprogress nofree norecurse nosync nounwind willreturn memory(read, inaccessiblemem: none) uwtable
define noundef double @_ZN3gmx9SansDebye19getScatteringLengthEid(ptr noundef nonnull readonly align 8 captures(none) dereferenceable(208) %0, i32 noundef %1, double %2) unnamed_addr #1 align 2 {
  %4 = getelementptr inbounds nuw i8, ptr %0, i64 184
  %5 = getelementptr inbounds nuw i8, ptr %0, i64 160
  %6 = sext i32 %1 to i64
  %7 = load ptr, ptr %5, align 8, !tbaa !13
  %8 = getelementptr inbounds nuw i32, ptr %7, i64 %6
  %9 = load i32, ptr %8, align 4, !tbaa !16
  %10 = sext i32 %9 to i64
  %11 = load ptr, ptr %4, align 8, !tbaa !7
  %12 = getelementptr inbounds nuw double, ptr %11, i64 %10
  %13 = load double, ptr %12, align 8, !tbaa !18
  ret double %13
}